target datalayout = "e-m:e-p270:32:32-p271:32:32-p272:64:64-i64:64-i128:128-f80:128-n8:16:32:64-S128"
target triple = "x86_64-pc-linux-gnu"

@.str = private unnamed_addr constant [26 x i8] c"Parameter '%s' is invalid\00", align 1
@.str.1 = private unnamed_addr constant [5 x i8] c"path\00", align 1
@.str.4 = private unnamed_addr constant [9 x i8] c"callback\00", align 1

; Function Attrs: nounwind uwtable
define hidden zeroext i1 @SDL_EnumerateDirectory_REAL(ptr noundef %0, ptr noundef %1, ptr noundef %2) #0 {
  %4 = alloca i1, align 1
  %5 = alloca ptr, align 8
  %6 = alloca ptr, align 8
  %7 = alloca ptr, align 8
  store ptr %0, ptr %5, align 8
  store ptr %1, ptr %6, align 8
  store ptr %2, ptr %7, align 8
  %8 = load ptr, ptr %5, align 8
  %9 = icmp ne ptr %8, null
  br i1 %9, label %12, label %10

10:                                               ; preds = %3
  %11 = call zeroext i1 (ptr, ...) @SDL_SetError_REAL(ptr noundef @.str, ptr noundef @.str.1)
  store i1 %11, ptr %4, align 1
  br label %23

12:                                               ; preds = %3
  %13 = load ptr, ptr %6, align 8
  %14 = icmp ne ptr %13, null
  br i1 %14, label %17, label %15

15:                                               ; preds = %12
  %16 = call zeroext i1 (ptr, ...) @SDL_SetError_REAL(ptr noundef @.str, ptr noundef @.str.4)
  store i1 %16, ptr %4, align 1
  br label %23

17:                                               ; preds = %12
  br label %18

18:                                               ; preds = %17
  %19 = load ptr, ptr %5, align 8
  %20 = load ptr, ptr %6, align 8
  %21 = load ptr, ptr %7, align 8
  %22 = call zeroext i1 @SDL_SYS_EnumerateDirectory(ptr noundef %19, ptr noundef %20, ptr noundef %21)
  store i1 %22, ptr %4, align 1
  br label %23

23:                                               ; preds = %18, %15, %10
  %24 = load i1, ptr %4, align 1
  ret i1 %24
}

; Function Attrs: nounwind uwtable
define internal zeroext i1 @GlobDirectoryEnumerator(ptr noundef %0, ptr noundef %1, ptr noundef %2, ptr noundef %3) #0 {
  %5 = alloca ptr, align 8
  %6 = alloca ptr, align 8
  %7 = alloca ptr, align 8
  %8 = alloca ptr, align 8
  store ptr %0, ptr %5, align 8
  store ptr %1, ptr %6, align 8
  store ptr %2, ptr %7, align 8
  store ptr %3, ptr %8, align 8
  %9 = load ptr, ptr %5, align 8
  %10 = load ptr, ptr %6, align 8
  %11 = load ptr, ptr %7, align 8
  %12 = call zeroext i1 @SDL_EnumerateDirectory_REAL(ptr noundef %9, ptr noundef %10, ptr noundef %11)
  ret i1 %12
}