; Function Attrs: nounwind uwtable
define internal zeroext i1 @GlobDirectoryEnumerator(ptr noundef %0, ptr noundef %1, ptr noundef %2, ptr readnone captures(none) %3) #0 {
  %.not.i = icmp eq ptr %0, null
  br i1 %.not.i, label %5, label %7

5:                                                ; preds = %4
  %6 = tail call zeroext i1 (ptr, ...) @SDL_SetError_REAL(ptr noundef nonnull @.str, ptr noundef nonnull @.str.1) #8
  br label %SDL_EnumerateDirectory_REAL.exit

7:                                                ; preds = %4
  %.not8.i = icmp eq ptr %1, null
  br i1 %.not8.i, label %8, label %10

8:                                                ; preds = %7
  %9 = tail call zeroext i1 (ptr, ...) @SDL_SetError_REAL(ptr noundef nonnull @.str, ptr noundef nonnull @.str.4) #8
  br label %SDL_EnumerateDirectory_REAL.exit

10:                                               ; preds = %7
  %11 = tail call zeroext i1 @SDL_SYS_EnumerateDirectory(ptr noundef nonnull %0, ptr noundef nonnull %1, ptr noundef %2) #8
  br label %SDL_EnumerateDirectory_REAL.exit

SDL_EnumerateDirectory_REAL.exit:                 ; preds = %5, %8, %10
  %.0.i = phi i1 [ %11, %10 ], [ %9, %8 ], [ %6, %5 ]
  ret i1 %.0.i
}